; Function Attrs: nounwind sspstrong uwtable
define internal i64 @env_invert(i64 %0) #0 {
  %2 = tail call fastcc i64 @env_to_hash()
  %3 = inttoptr i64 %2 to ptr
  %4 = load i64, ptr %3, align 8, !tbaa !11
  %5 = and i64 %4, 32768
  %.not.i.i.i = icmp eq i64 %5, 0
  br i1 %.not.i.i.i, label %6, label %9

6:                                                ; preds = %1
  %7 = lshr i64 %4, 16
  %8 = and i64 %7, 15
  br label %RHASH_SIZE.exit.i

9:                                                ; preds = %1
  %10 = add i64 %2, 24
  %11 = inttoptr i64 %10 to ptr
  %12 = getelementptr inbounds nuw i8, ptr %11, i64 16
  %13 = load i64, ptr %12, align 8, !tbaa !49
  br label %RHASH_SIZE.exit.i

RHASH_SIZE.exit.i:                                ; preds = %9, %6
  %.0.i.i = phi i64 [ %8, %6 ], [ %13, %9 ]
  %14 = icmp ugt i64 %.0.i.i, 8
  %15 = load i64, ptr @rb_cHash, align 8, !tbaa !7
  %16 = select i1 %14, i64 80, i64 160
  %17 = tail call align 8 ptr @llvm.threadlocal.address.p0(ptr align 8 @ruby_current_ec)
  %18 = load ptr, ptr %17, align 8, !tbaa !24
  %19 = tail call i64 @rb_wb_protected_newobj_of(ptr noundef %18, i64 noundef %15, i64 noundef 8, i64 noundef %16) #28
  %20 = inttoptr i64 %19 to ptr
  %21 = getelementptr inbounds nuw i8, ptr %20, i64 16
  store i64 4, ptr %21, align 8, !tbaa !7
  br i1 %14, label %22, label %rb_hash_invert.exit

22:                                               ; preds = %RHASH_SIZE.exit.i
  %23 = add i64 %19, 24
  %24 = inttoptr i64 %23 to ptr
  %25 = tail call ptr @rb_st_init_existing_table_with_size(ptr noundef nonnull %24, ptr noundef nonnull @objhash, i64 noundef %.0.i.i) #28
  %26 = load i64, ptr %20, align 8, !tbaa !11
  %27 = or i64 %26, 32768
  store i64 %27, ptr %20, align 8, !tbaa !11
  br label %rb_hash_invert.exit

rb_hash_invert.exit:                              ; preds = %RHASH_SIZE.exit.i, %22
  tail call void @rb_hash_foreach(i64 noundef %2, ptr noundef @rb_hash_invert_i, i64 noundef %19)
  ret i64 %19
}